target datalayout = "e-m:e-p270:32:32-p271:32:32-p272:64:64-i64:64-i128:128-f80:128-n8:16:32:64-S128"
target triple = "x86_64-pc-linux-gnu"

%struct.uv_tcp_s = type { ptr, ptr, i32, ptr, [2 x ptr], %union.anon, ptr, i32, i64, ptr, ptr, ptr, ptr, %struct.uv__io_s, [2 x ptr], [2 x ptr], ptr, i32, i32, ptr }
%union.anon = type { [4 x ptr] }
%struct.uv__io_s = type { ptr, [2 x ptr], [2 x ptr], i32, i32, i32 }
%struct.sockaddr_storage = type { i16, [118 x i8], i64 }
%union.__SOCKADDR_ARG = type { ptr }
%union.__CONST_SOCKADDR_ARG = type { ptr }
%struct.sockaddr_in6 = type { i16, i16, i32, %struct.in6_addr, i32 }
%struct.in6_addr = type { %union.anon.4 }
%union.anon.4 = type { [4 x i32] }
%struct.sockaddr_in = type { i16, i16, %struct.in_addr, [8 x i8] }
%struct.in_addr = type { i32 }

@uv__tcp_listen.single_accept_cached = internal global i32 -1, align 4
@.str = private unnamed_addr constant [21 x i8] c"UV_TCP_SINGLE_ACCEPT\00", align 1

; Function Attrs: nounwind uwtable
define internal i32 @new_socket(ptr noundef %0, i32 noundef %1, i64 noundef %2) #0 {
  %4 = alloca i32, align 4
  %5 = alloca ptr, align 8
  %6 = alloca i32, align 4
  %7 = alloca i64, align 8
  %8 = alloca %struct.sockaddr_storage, align 8
  %9 = alloca i32, align 4
  %10 = alloca i32, align 4
  %11 = alloca i32, align 4
  %12 = alloca i32, align 4
  %13 = alloca %union.__SOCKADDR_ARG, align 8
  %14 = alloca %union.__CONST_SOCKADDR_ARG, align 8
  store ptr %0, ptr %5, align 8, !tbaa !9
  store i32 %1, ptr %6, align 4, !tbaa !11
  store i64 %2, ptr %7, align 8, !tbaa !14
  call void @llvm.lifetime.start.p0(i64 128, ptr %8) #8
  call void @llvm.lifetime.start.p0(i64 4, ptr %9) #8
  call void @llvm.lifetime.start.p0(i64 4, ptr %10) #8
  call void @llvm.lifetime.start.p0(i64 4, ptr %11) #8
  %15 = load i32, ptr %6, align 4, !tbaa !11
  %16 = call i32 @uv__socket(i32 noundef %15, i32 noundef 1, i32 noundef 0)
  store i32 %16, ptr %11, align 4, !tbaa !11
  %17 = load i32, ptr %11, align 4, !tbaa !11
  %18 = icmp slt i32 %17, 0
  br i1 %18, label %19, label %21

19:                                               ; preds = %3
  %20 = load i32, ptr %11, align 4, !tbaa !11
  store i32 %20, ptr %4, align 4
  store i32 1, ptr %12, align 4
  br label %71

21:                                               ; preds = %3
  %22 = load i32, ptr %11, align 4, !tbaa !11
  store i32 %22, ptr %10, align 4, !tbaa !11
  %23 = load ptr, ptr %5, align 8, !tbaa !9
  %24 = load i32, ptr %10, align 4, !tbaa !11
  %25 = load i64, ptr %7, align 8, !tbaa !14
  %26 = trunc i64 %25 to i32
  %27 = call i32 @uv__stream_open(ptr noundef %23, i32 noundef %24, i32 noundef %26)
  store i32 %27, ptr %11, align 4, !tbaa !11
  %28 = load i32, ptr %11, align 4, !tbaa !11
  %29 = icmp ne i32 %28, 0
  br i1 %29, label %30, label %34

30:                                               ; preds = %21
  %31 = load i32, ptr %10, align 4, !tbaa !11
  %32 = call i32 @uv__close(i32 noundef %31)
  %33 = load i32, ptr %11, align 4, !tbaa !11
  store i32 %33, ptr %4, align 4
  store i32 1, ptr %12, align 4
  br label %71

34:                                               ; preds = %21
  %35 = load i64, ptr %7, align 8, !tbaa !14
  %36 = and i64 %35, 8192
  %37 = icmp ne i64 %36, 0
  br i1 %37, label %38, label %70

38:                                               ; preds = %34
  store i32 128, ptr %9, align 4, !tbaa !11
  call void @llvm.memset.p0.i64(ptr align 8 %8, i8 0, i64 128, i1 false)
  %39 = load ptr, ptr %5, align 8, !tbaa !9
  %40 = getelementptr inbounds nuw %struct.uv_tcp_s, ptr %39, i32 0, i32 13
  %41 = getelementptr inbounds nuw %struct.uv__io_s, ptr %40, i32 0, i32 5
  %42 = load i32, ptr %41, align 8, !tbaa !22
  store ptr %8, ptr %13, align 8, !tbaa !23
  %43 = getelementptr inbounds nuw %union.__SOCKADDR_ARG, ptr %13, i32 0, i32 0
  %44 = load ptr, ptr %43, align 8
  %45 = call i32 @getsockname(i32 noundef %42, ptr %44, ptr noundef %9) #8
  %46 = icmp ne i32 %45, 0
  br i1 %46, label %47, label %53

47:                                               ; preds = %38
  %48 = load i32, ptr %10, align 4, !tbaa !11
  %49 = call i32 @uv__close(i32 noundef %48)
  %50 = call ptr @__errno_location() #9
  %51 = load i32, ptr %50, align 4, !tbaa !11
  %52 = sub nsw i32 0, %51
  store i32 %52, ptr %4, align 4
  store i32 1, ptr %12, align 4
  br label %71

53:                                               ; preds = %38
  %54 = load ptr, ptr %5, align 8, !tbaa !9
  %55 = getelementptr inbounds nuw %struct.uv_tcp_s, ptr %54, i32 0, i32 13
  %56 = getelementptr inbounds nuw %struct.uv__io_s, ptr %55, i32 0, i32 5
  %57 = load i32, ptr %56, align 8, !tbaa !22
  store ptr %8, ptr %14, align 8, !tbaa !23
  %58 = load i32, ptr %9, align 4, !tbaa !11
  %59 = getelementptr inbounds nuw %union.__CONST_SOCKADDR_ARG, ptr %14, i32 0, i32 0
  %60 = load ptr, ptr %59, align 8
  %61 = call i32 @bind(i32 noundef %57, ptr %60, i32 noundef %58) #8
  %62 = icmp ne i32 %61, 0
  br i1 %62, label %63, label %69

63:                                               ; preds = %53
  %64 = load i32, ptr %10, align 4, !tbaa !11
  %65 = call i32 @uv__close(i32 noundef %64)
  %66 = call ptr @__errno_location() #9
  %67 = load i32, ptr %66, align 4, !tbaa !11
  %68 = sub nsw i32 0, %67
  store i32 %68, ptr %4, align 4
  store i32 1, ptr %12, align 4
  br label %71

69:                                               ; preds = %53
  br label %70

70:                                               ; preds = %69, %34
  store i32 0, ptr %4, align 4
  store i32 1, ptr %12, align 4
  br label %71

71:                                               ; preds = %70, %63, %47, %30, %19
  call void @llvm.lifetime.end.p0(i64 4, ptr %11) #8
  call void @llvm.lifetime.end.p0(i64 4, ptr %10) #8
  call void @llvm.lifetime.end.p0(i64 4, ptr %9) #8
  call void @llvm.lifetime.end.p0(i64 128, ptr %8) #8
  %72 = load i32, ptr %4, align 4
  ret i32 %72
}

; Function Attrs: nounwind uwtable
define internal i32 @maybe_new_socket(ptr noundef %0, i32 noundef %1, i64 noundef %2) #0 {
  %4 = alloca i32, align 4
  %5 = alloca ptr, align 8
  %6 = alloca i32, align 4
  %7 = alloca i64, align 8
  %8 = alloca %struct.sockaddr_storage, align 8
  %9 = alloca i32, align 4
  %10 = alloca i32, align 4
  %11 = alloca %union.__SOCKADDR_ARG, align 8
  %12 = alloca %union.__CONST_SOCKADDR_ARG, align 8
  store ptr %0, ptr %5, align 8, !tbaa !9
  store i32 %1, ptr %6, align 4, !tbaa !11
  store i64 %2, ptr %7, align 8, !tbaa !14
  call void @llvm.lifetime.start.p0(i64 128, ptr %8) #8
  call void @llvm.lifetime.start.p0(i64 4, ptr %9) #8
  %13 = load i32, ptr %6, align 4, !tbaa !11
  %14 = icmp eq i32 %13, 0
  br i1 %14, label %15, label %23

15:                                               ; preds = %3
  %16 = load i64, ptr %7, align 8, !tbaa !14
  %17 = load ptr, ptr %5, align 8, !tbaa !9
  %18 = getelementptr inbounds nuw %struct.uv_tcp_s, ptr %17, i32 0, i32 7
  %19 = load i32, ptr %18, align 8, !tbaa !16
  %20 = zext i32 %19 to i64
  %21 = or i64 %20, %16
  %22 = trunc i64 %21 to i32
  store i32 %22, ptr %18, align 8, !tbaa !16
  store i32 0, ptr %4, align 4
  store i32 1, ptr %10, align 4
  br label %116

23:                                               ; preds = %3
  %24 = load ptr, ptr %5, align 8, !tbaa !9
  %25 = getelementptr inbounds nuw %struct.uv_tcp_s, ptr %24, i32 0, i32 13
  %26 = getelementptr inbounds nuw %struct.uv__io_s, ptr %25, i32 0, i32 5
  %27 = load i32, ptr %26, align 8, !tbaa !22
  %28 = icmp ne i32 %27, -1
  br i1 %28, label %29, label %111

29:                                               ; preds = %23
  %30 = load i64, ptr %7, align 8, !tbaa !14
  %31 = and i64 %30, 8192
  %32 = icmp ne i64 %31, 0
  br i1 %32, label %33, label %103

33:                                               ; preds = %29
  %34 = load ptr, ptr %5, align 8, !tbaa !9
  %35 = getelementptr inbounds nuw %struct.uv_tcp_s, ptr %34, i32 0, i32 7
  %36 = load i32, ptr %35, align 8, !tbaa !16
  %37 = and i32 %36, 8192
  %38 = icmp ne i32 %37, 0
  br i1 %38, label %39, label %47

39:                                               ; preds = %33
  %40 = load i64, ptr %7, align 8, !tbaa !14
  %41 = load ptr, ptr %5, align 8, !tbaa !9
  %42 = getelementptr inbounds nuw %struct.uv_tcp_s, ptr %41, i32 0, i32 7
  %43 = load i32, ptr %42, align 8, !tbaa !16
  %44 = zext i32 %43 to i64
  %45 = or i64 %44, %40
  %46 = trunc i64 %45 to i32
  store i32 %46, ptr %42, align 8, !tbaa !16
  store i32 0, ptr %4, align 4
  store i32 1, ptr %10, align 4
  br label %116

47:                                               ; preds = %33
  store i32 128, ptr %9, align 4, !tbaa !11
  call void @llvm.memset.p0.i64(ptr align 8 %8, i8 0, i64 128, i1 false)
  %48 = load ptr, ptr %5, align 8, !tbaa !9
  %49 = getelementptr inbounds nuw %struct.uv_tcp_s, ptr %48, i32 0, i32 13
  %50 = getelementptr inbounds nuw %struct.uv__io_s, ptr %49, i32 0, i32 5
  %51 = load i32, ptr %50, align 8, !tbaa !22
  store ptr %8, ptr %11, align 8, !tbaa !23
  %52 = getelementptr inbounds nuw %union.__SOCKADDR_ARG, ptr %11, i32 0, i32 0
  %53 = load ptr, ptr %52, align 8
  %54 = call i32 @getsockname(i32 noundef %51, ptr %53, ptr noundef %9) #8
  %55 = icmp ne i32 %54, 0
  br i1 %55, label %56, label %60

56:                                               ; preds = %47
  %57 = call ptr @__errno_location() #9
  %58 = load i32, ptr %57, align 4, !tbaa !11
  %59 = sub nsw i32 0, %58
  store i32 %59, ptr %4, align 4
  store i32 1, ptr %10, align 4
  br label %116

60:                                               ; preds = %47
  %61 = getelementptr inbounds nuw %struct.sockaddr_storage, ptr %8, i32 0, i32 0
  %62 = load i16, ptr %61, align 8, !tbaa !24
  %63 = zext i16 %62 to i32
  %64 = icmp eq i32 %63, 10
  br i1 %64, label %65, label %70

65:                                               ; preds = %60
  %66 = getelementptr inbounds nuw %struct.sockaddr_in6, ptr %8, i32 0, i32 1
  %67 = load i16, ptr %66, align 2, !tbaa !27
  %68 = zext i16 %67 to i32
  %69 = icmp ne i32 %68, 0
  br i1 %69, label %80, label %70

70:                                               ; preds = %65, %60
  %71 = getelementptr inbounds nuw %struct.sockaddr_storage, ptr %8, i32 0, i32 0
  %72 = load i16, ptr %71, align 8, !tbaa !24
  %73 = zext i16 %72 to i32
  %74 = icmp eq i32 %73, 2
  br i1 %74, label %75, label %88

75:                                               ; preds = %70
  %76 = getelementptr inbounds nuw %struct.sockaddr_in, ptr %8, i32 0, i32 1
  %77 = load i16, ptr %76, align 2, !tbaa !30
  %78 = zext i16 %77 to i32
  %79 = icmp ne i32 %78, 0
  br i1 %79, label %80, label %88

80:                                               ; preds = %75, %65
  %81 = load i64, ptr %7, align 8, !tbaa !14
  %82 = load ptr, ptr %5, align 8, !tbaa !9
  %83 = getelementptr inbounds nuw %struct.uv_tcp_s, ptr %82, i32 0, i32 7
  %84 = load i32, ptr %83, align 8, !tbaa !16
  %85 = zext i32 %84 to i64
  %86 = or i64 %85, %81
  %87 = trunc i64 %86 to i32
  store i32 %87, ptr %83, align 8, !tbaa !16
  store i32 0, ptr %4, align 4
  store i32 1, ptr %10, align 4
  br label %116

88:                                               ; preds = %75, %70
  %89 = load ptr, ptr %5, align 8, !tbaa !9
  %90 = getelementptr inbounds nuw %struct.uv_tcp_s, ptr %89, i32 0, i32 13
  %91 = getelementptr inbounds nuw %struct.uv__io_s, ptr %90, i32 0, i32 5
  %92 = load i32, ptr %91, align 8, !tbaa !22
  store ptr %8, ptr %12, align 8, !tbaa !23
  %93 = load i32, ptr %9, align 4, !tbaa !11
  %94 = getelementptr inbounds nuw %union.__CONST_SOCKADDR_ARG, ptr %12, i32 0, i32 0
  %95 = load ptr, ptr %94, align 8
  %96 = call i32 @bind(i32 noundef %92, ptr %95, i32 noundef %93) #8
  %97 = icmp ne i32 %96, 0
  br i1 %97, label %98, label %102

98:                                               ; preds = %88
  %99 = call ptr @__errno_location() #9
  %100 = load i32, ptr %99, align 4, !tbaa !11
  %101 = sub nsw i32 0, %100
  store i32 %101, ptr %4, align 4
  store i32 1, ptr %10, align 4
  br label %116

102:                                              ; preds = %88
  br label %103

103:                                              ; preds = %102, %29
  %104 = load i64, ptr %7, align 8, !tbaa !14
  %105 = load ptr, ptr %5, align 8, !tbaa !9
  %106 = getelementptr inbounds nuw %struct.uv_tcp_s, ptr %105, i32 0, i32 7
  %107 = load i32, ptr %106, align 8, !tbaa !16
  %108 = zext i32 %107 to i64
  %109 = or i64 %108, %104
  %110 = trunc i64 %109 to i32
  store i32 %110, ptr %106, align 8, !tbaa !16
  store i32 0, ptr %4, align 4
  store i32 1, ptr %10, align 4
  br label %116

111:                                              ; preds = %23
  %112 = load ptr, ptr %5, align 8, !tbaa !9
  %113 = load i32, ptr %6, align 4, !tbaa !11
  %114 = load i64, ptr %7, align 8, !tbaa !14
  %115 = call i32 @new_socket(ptr noundef %112, i32 noundef %113, i64 noundef %114)
  store i32 %115, ptr %4, align 4
  store i32 1, ptr %10, align 4
  br label %116

116:                                              ; preds = %111, %103, %98, %80, %56, %39, %15
  call void @llvm.lifetime.end.p0(i64 4, ptr %9) #8
  call void @llvm.lifetime.end.p0(i64 128, ptr %8) #8
  %117 = load i32, ptr %4, align 4
  ret i32 %117
}

; Function Attrs: inlinehint nounwind willreturn memory(read) uwtable
define available_externally i32 @atoi(ptr noundef nonnull %0) #6 {
  %2 = alloca ptr, align 8
  store ptr %0, ptr %2, align 8, !tbaa !50
  %3 = load ptr, ptr %2, align 8, !tbaa !50
  %4 = call i64 @strtol(ptr noundef %3, ptr noundef null, i32 noundef 10) #8
  %5 = trunc i64 %4 to i32
  ret i32 %5
}

; Function Attrs: nounwind uwtable
define dso_local i32 @uv__tcp_listen(ptr noundef %0, i32 noundef %1, ptr noundef %2) #0 {
  %4 = alloca i32, align 4
  %5 = alloca ptr, align 8
  %6 = alloca i32, align 4
  %7 = alloca ptr, align 8
  %8 = alloca i64, align 8
  %9 = alloca i32, align 4
  %10 = alloca i32, align 4
  %11 = alloca i32, align 4
  %12 = alloca ptr, align 8
  store ptr %0, ptr %5, align 8, !tbaa !9
  store i32 %1, ptr %6, align 4, !tbaa !11
  store ptr %2, ptr %7, align 8, !tbaa !13
  call void @llvm.lifetime.start.p0(i64 8, ptr %8) #8
  call void @llvm.lifetime.start.p0(i64 4, ptr %9) #8
  call void @llvm.lifetime.start.p0(i64 4, ptr %10) #8
  %13 = load ptr, ptr %5, align 8, !tbaa !9
  %14 = getelementptr inbounds nuw %struct.uv_tcp_s, ptr %13, i32 0, i32 17
  %15 = load i32, ptr %14, align 8, !tbaa !37
  %16 = icmp ne i32 %15, 0
  br i1 %16, label %17, label %21

17:                                               ; preds = %3
  %18 = load ptr, ptr %5, align 8, !tbaa !9
  %19 = getelementptr inbounds nuw %struct.uv_tcp_s, ptr %18, i32 0, i32 17
  %20 = load i32, ptr %19, align 8, !tbaa !37
  store i32 %20, ptr %4, align 4
  store i32 1, ptr %11, align 4
  br label %84

21:                                               ; preds = %3
  %22 = load i32, ptr @uv__tcp_listen.single_accept_cached, align 4, !tbaa !11
  store i32 %22, ptr %9, align 4, !tbaa !11
  %23 = load i32, ptr %9, align 4, !tbaa !11
  %24 = icmp eq i32 %23, -1
  br i1 %24, label %25, label %40

25:                                               ; preds = %21
  call void @llvm.lifetime.start.p0(i64 8, ptr %12) #8
  %26 = call ptr @getenv(ptr noundef @.str) #8
  store ptr %26, ptr %12, align 8, !tbaa !50
  %27 = load ptr, ptr %12, align 8, !tbaa !50
  %28 = icmp ne ptr %27, null
  br i1 %28, label %29, label %33

29:                                               ; preds = %25
  %30 = load ptr, ptr %12, align 8, !tbaa !50
  %31 = call i32 @atoi(ptr noundef %30) #10
  %32 = icmp ne i32 %31, 0
  br label %33

33:                                               ; preds = %29, %25
  %34 = phi i1 [ false, %25 ], [ %32, %29 ]
  %35 = zext i1 %34 to i32
  store i32 %35, ptr %9, align 4, !tbaa !11
  br label %36

36:                                               ; preds = %33
  %37 = load i32, ptr %9, align 4, !tbaa !11
  store i32 %37, ptr @uv__tcp_listen.single_accept_cached, align 4, !tbaa !11
  br label %38

38:                                               ; preds = %36
  br label %39

39:                                               ; preds = %38
  call void @llvm.lifetime.end.p0(i64 8, ptr %12) #8
  br label %40

40:                                               ; preds = %39, %21
  %41 = load i32, ptr %9, align 4, !tbaa !11
  %42 = icmp ne i32 %41, 0
  br i1 %42, label %43, label %48

43:                                               ; preds = %40
  %44 = load ptr, ptr %5, align 8, !tbaa !9
  %45 = getelementptr inbounds nuw %struct.uv_tcp_s, ptr %44, i32 0, i32 7
  %46 = load i32, ptr %45, align 8, !tbaa !16
  %47 = or i32 %46, 67108864
  store i32 %47, ptr %45, align 8, !tbaa !16
  br label %48

48:                                               ; preds = %43, %40
  store i64 0, ptr %8, align 8, !tbaa !14
  %49 = load ptr, ptr %5, align 8, !tbaa !9
  %50 = load i64, ptr %8, align 8, !tbaa !14
  %51 = call i32 @maybe_new_socket(ptr noundef %49, i32 noundef 2, i64 noundef %50)
  store i32 %51, ptr %10, align 4, !tbaa !11
  %52 = load i32, ptr %10, align 4, !tbaa !11
  %53 = icmp ne i32 %52, 0
  br i1 %53, label %54, label %56

54:                                               ; preds = %48
  %55 = load i32, ptr %10, align 4, !tbaa !11
  store i32 %55, ptr %4, align 4
  store i32 1, ptr %11, align 4
  br label %84

56:                                               ; preds = %48
  %57 = load ptr, ptr %5, align 8, !tbaa !9
  %58 = getelementptr inbounds nuw %struct.uv_tcp_s, ptr %57, i32 0, i32 13
  %59 = getelementptr inbounds nuw %struct.uv__io_s, ptr %58, i32 0, i32 5
  %60 = load i32, ptr %59, align 8, !tbaa !22
  %61 = load i32, ptr %6, align 4, !tbaa !11
  %62 = call i32 @listen(i32 noundef %60, i32 noundef %61) #8
  %63 = icmp ne i32 %62, 0
  br i1 %63, label %64, label %68

64:                                               ; preds = %56
  %65 = call ptr @__errno_location() #9
  %66 = load i32, ptr %65, align 4, !tbaa !11
  %67 = sub nsw i32 0, %66
  store i32 %67, ptr %4, align 4
  store i32 1, ptr %11, align 4
  br label %84

68:                                               ; preds = %56
  %69 = load ptr, ptr %7, align 8, !tbaa !13
  %70 = load ptr, ptr %5, align 8, !tbaa !9
  %71 = getelementptr inbounds nuw %struct.uv_tcp_s, ptr %70, i32 0, i32 16
  store ptr %69, ptr %71, align 8, !tbaa !52
  %72 = load ptr, ptr %5, align 8, !tbaa !9
  %73 = getelementptr inbounds nuw %struct.uv_tcp_s, ptr %72, i32 0, i32 7
  %74 = load i32, ptr %73, align 8, !tbaa !16
  %75 = or i32 %74, 8192
  store i32 %75, ptr %73, align 8, !tbaa !16
  %76 = load ptr, ptr %5, align 8, !tbaa !9
  %77 = getelementptr inbounds nuw %struct.uv_tcp_s, ptr %76, i32 0, i32 13
  %78 = getelementptr inbounds nuw %struct.uv__io_s, ptr %77, i32 0, i32 0
  store ptr @uv__server_io, ptr %78, align 8, !tbaa !53
  %79 = load ptr, ptr %5, align 8, !tbaa !9
  %80 = getelementptr inbounds nuw %struct.uv_tcp_s, ptr %79, i32 0, i32 1
  %81 = load ptr, ptr %80, align 8, !tbaa !45
  %82 = load ptr, ptr %5, align 8, !tbaa !9
  %83 = getelementptr inbounds nuw %struct.uv_tcp_s, ptr %82, i32 0, i32 13
  call void @uv__io_start(ptr noundef %81, ptr noundef %83, i32 noundef 1)
  store i32 0, ptr %4, align 4
  store i32 1, ptr %11, align 4
  br label %84

84:                                               ; preds = %68, %64, %54, %17
  call void @llvm.lifetime.end.p0(i64 4, ptr %10) #8
  call void @llvm.lifetime.end.p0(i64 4, ptr %9) #8
  call void @llvm.lifetime.end.p0(i64 8, ptr %8) #8
  %85 = load i32, ptr %4, align 4
  ret i32 %85
}