; Function Attrs: nounwind uwtable
define dso_local i32 @uv__tcp_listen(ptr noundef %0, i32 noundef %1, ptr noundef %2) local_unnamed_addr #0 {
  %4 = getelementptr inbounds nuw i8, ptr %0, i64 232
  %5 = load i32, ptr %4, align 8, !tbaa !21
  %.not = icmp eq i32 %5, 0
  br i1 %.not, label %6, label %maybe_new_socket.exit

6:                                                ; preds = %3
  %7 = load i32, ptr @uv__tcp_listen.single_accept_cached, align 4, !tbaa !20
  %8 = icmp eq i32 %7, -1
  br i1 %8, label %9, label %18

9:                                                ; preds = %6
  %10 = tail call ptr @getenv(ptr noundef nonnull @.str) #8
  %.not25 = icmp eq ptr %10, null
  br i1 %.not25, label %16, label %11

11:                                               ; preds = %9
  %12 = tail call i64 @strtol(ptr noundef nonnull captures(none) %10, ptr noundef null, i32 noundef 10) #8
  %13 = and i64 %12, 4294967295
  %14 = icmp ne i64 %13, 0
  %15 = zext i1 %14 to i32
  br label %16

16:                                               ; preds = %11, %9
  %17 = phi i32 [ 0, %9 ], [ %15, %11 ]
  store i32 %17, ptr @uv__tcp_listen.single_accept_cached, align 4, !tbaa !20
  br label %18

18:                                               ; preds = %16, %6
  %.020 = phi i32 [ %17, %16 ], [ %7, %6 ]
  %.not26 = icmp eq i32 %.020, 0
  br i1 %.not26, label %23, label %19

19:                                               ; preds = %18
  %20 = getelementptr inbounds nuw i8, ptr %0, i64 88
  %21 = load i32, ptr %20, align 8, !tbaa !22
  %22 = or i32 %21, 67108864
  store i32 %22, ptr %20, align 8, !tbaa !22
  br label %23

23:                                               ; preds = %19, %18
  %24 = getelementptr inbounds nuw i8, ptr %0, i64 184
  %25 = load i32, ptr %24, align 8, !tbaa !4
  %.not.i = icmp eq i32 %25, -1
  br i1 %.not.i, label %26, label %33

26:                                               ; preds = %23
  %27 = tail call i32 @uv__socket(i32 noundef range(i32 1, 65536) 2, i32 noundef 1, i32 noundef 0) #8
  %28 = icmp slt i32 %27, 0
  br i1 %28, label %maybe_new_socket.exit, label %29

29:                                               ; preds = %26
  %30 = tail call i32 @uv__stream_open(ptr noundef nonnull %0, i32 noundef %27, i32 noundef 0) #8
  %.not.i.i = icmp eq i32 %30, 0
  br i1 %.not.i.i, label %._crit_edge, label %31

._crit_edge:                                      ; preds = %29
  %.pre = load i32, ptr %24, align 8, !tbaa !4
  br label %33

31:                                               ; preds = %29
  %32 = tail call i32 @uv__close(i32 noundef %27) #8
  br label %maybe_new_socket.exit

33:                                               ; preds = %._crit_edge, %23
  %34 = phi i32 [ %.pre, %._crit_edge ], [ %25, %23 ]
  %35 = tail call i32 @listen(i32 noundef %34, i32 noundef %1) #8
  %.not28 = icmp eq i32 %35, 0
  br i1 %.not28, label %40, label %36

36:                                               ; preds = %33
  %37 = tail call ptr @__errno_location() #9
  %38 = load i32, ptr %37, align 4, !tbaa !20
  %39 = sub nsw i32 0, %38
  br label %maybe_new_socket.exit

40:                                               ; preds = %33
  %41 = getelementptr inbounds nuw i8, ptr %0, i64 136
  %42 = getelementptr inbounds nuw i8, ptr %0, i64 224
  store ptr %2, ptr %42, align 8, !tbaa !31
  %43 = getelementptr inbounds nuw i8, ptr %0, i64 88
  %44 = load i32, ptr %43, align 8, !tbaa !22
  %45 = or i32 %44, 8192
  store i32 %45, ptr %43, align 8, !tbaa !22
  store ptr @uv__server_io, ptr %41, align 8, !tbaa !32
  %46 = getelementptr inbounds nuw i8, ptr %0, i64 8
  %47 = load ptr, ptr %46, align 8, !tbaa !27
  tail call void @uv__io_start(ptr noundef %47, ptr noundef nonnull %41, i32 noundef 1) #8
  br label %maybe_new_socket.exit

maybe_new_socket.exit:                            ; preds = %31, %26, %3, %40, %36
  %.0 = phi i32 [ %39, %36 ], [ 0, %40 ], [ %5, %3 ], [ %30, %31 ], [ %27, %26 ]
  ret i32 %.0
}